target datalayout = "e-m:e-p270:32:32-p271:32:32-p272:64:64-i64:64-i128:128-f80:128-n8:16:32:64-S128"
target triple = "x86_64-pc-linux-gnu"

%struct.ASN1_TLC_st = type { i8, i32, i64, i32, i32, i32 }

; Function Attrs: nounwind uwtable
define hidden ptr @ASN1_item_d2i(ptr noundef %0, ptr noundef %1, i64 noundef %2, ptr noundef %3) #0 {
  %5 = alloca ptr, align 8
  %6 = alloca ptr, align 8
  %7 = alloca ptr, align 8
  %8 = alloca i64, align 8
  %9 = alloca ptr, align 8
  %10 = alloca %struct.ASN1_TLC_st, align 8
  %11 = alloca ptr, align 8
  %12 = alloca i32, align 4
  store ptr %0, ptr %6, align 8, !tbaa !12
  store ptr %1, ptr %7, align 8, !tbaa !15
  store i64 %2, ptr %8, align 8, !tbaa !10
  store ptr %3, ptr %9, align 8, !tbaa !17
  call void @llvm.lifetime.start.p0(i64 32, ptr %10) #6
  call void @llvm.lifetime.start.p0(i64 8, ptr %11) #6
  store ptr null, ptr %11, align 8, !tbaa !19
  %13 = load ptr, ptr %6, align 8, !tbaa !12
  %14 = icmp ne ptr %13, null
  br i1 %14, label %16, label %15

15:                                               ; preds = %4
  store ptr %11, ptr %6, align 8, !tbaa !12
  br label %16

16:                                               ; preds = %15, %4
  %17 = getelementptr inbounds nuw %struct.ASN1_TLC_st, ptr %10, i32 0, i32 0
  store i8 0, ptr %17, align 8, !tbaa !21
  %18 = load ptr, ptr %6, align 8, !tbaa !12
  %19 = load ptr, ptr %7, align 8, !tbaa !15
  %20 = load i64, ptr %8, align 8, !tbaa !10
  %21 = load ptr, ptr %9, align 8, !tbaa !17
  %22 = call i32 @ASN1_item_ex_d2i(ptr noundef %18, ptr noundef %19, i64 noundef %20, ptr noundef %21, i32 noundef -1, i32 noundef 0, i8 noundef signext 0, ptr noundef %10)
  %23 = icmp sgt i32 %22, 0
  br i1 %23, label %24, label %27

24:                                               ; preds = %16
  %25 = load ptr, ptr %6, align 8, !tbaa !12
  %26 = load ptr, ptr %25, align 8, !tbaa !19
  store ptr %26, ptr %5, align 8
  store i32 1, ptr %12, align 4
  br label %28

27:                                               ; preds = %16
  store ptr null, ptr %5, align 8
  store i32 1, ptr %12, align 4
  br label %28

28:                                               ; preds = %27, %24
  call void @llvm.lifetime.end.p0(i64 8, ptr %11) #6
  call void @llvm.lifetime.end.p0(i64 32, ptr %10) #6
  %29 = load ptr, ptr %5, align 8
  ret ptr %29
}