; Function Attrs: nounwind uwtable
define hidden ptr @ASN1_item_d2i(ptr noundef %0, ptr noundef %1, i64 noundef %2, ptr noundef %3) local_unnamed_addr #1 {
  %5 = alloca %struct.ASN1_TLC_st, align 8
  %6 = alloca ptr, align 8
  call void @llvm.lifetime.start.p0(i64 32, ptr nonnull %5) #7
  call void @llvm.lifetime.start.p0(i64 8, ptr nonnull %6) #7
  store ptr null, ptr %6, align 8, !tbaa !10
  %.not = icmp eq ptr %0, null
  %spec.store.select = select i1 %.not, ptr %6, ptr %0
  store i8 0, ptr %5, align 8, !tbaa !13
  %7 = call i32 @ASN1_item_ex_d2i(ptr noundef nonnull %spec.store.select, ptr noundef %1, i64 noundef %2, ptr noundef %3, i32 noundef -1, i32 noundef 0, i8 noundef signext 0, ptr noundef nonnull %5)
  %8 = icmp sgt i32 %7, 0
  br i1 %8, label %9, label %11

9:                                                ; preds = %4
  %10 = load ptr, ptr %spec.store.select, align 8, !tbaa !10
  br label %11

11:                                               ; preds = %4, %9
  %.0 = phi ptr [ %10, %9 ], [ null, %4 ]
  call void @llvm.lifetime.end.p0(i64 8, ptr nonnull %6) #7
  call void @llvm.lifetime.end.p0(i64 32, ptr nonnull %5) #7
  ret ptr %.0
}